; Function Attrs: nounwind uwtable
define ptr @l_Array_foldlMUnsafe_fold___at_Lake_mkOrdTagMap___spec__1___rarg___lambda__1(ptr noundef %0, ptr noundef %1, ptr noundef %2, ptr noundef %3) #2 {
  %5 = getelementptr inbounds nuw i8, ptr %0, i64 8
  %6 = load ptr, ptr %5, align 8, !tbaa !4
  %7 = ptrtoint ptr %6 to i64
  %8 = and i64 %7, 1
  %.not = icmp eq i64 %8, 0
  br i1 %.not, label %9, label %lean_inc.exit14

9:                                                ; preds = %4
  %.val.i = load i32, ptr %6, align 4, !tbaa !8
  %10 = icmp sgt i32 %.val.i, 0
  br i1 %10, label %11, label %13, !prof !11

11:                                               ; preds = %9
  %12 = add nuw i32 %.val.i, 1
  store i32 %12, ptr %6, align 4, !tbaa !8
  br label %lean_inc.exit14

13:                                               ; preds = %9
  %.not.i17 = icmp eq i32 %.val.i, 0
  br i1 %.not.i17, label %lean_inc.exit14, label %14

14:                                               ; preds = %13
  tail call void @lean_inc_ref_cold(ptr noundef nonnull %6) #5
  br label %lean_inc.exit14

lean_inc.exit14:                                  ; preds = %14, %13, %11, %4
  %15 = ptrtoint ptr %0 to i64
  %16 = and i64 %15, 1
  %.not21 = icmp eq i64 %16, 0
  br i1 %.not21, label %17, label %lean_dec.exit13

17:                                               ; preds = %lean_inc.exit14
  %18 = load i32, ptr %0, align 4, !tbaa !8
  %19 = icmp sgt i32 %18, 1
  br i1 %19, label %20, label %22, !prof !11

20:                                               ; preds = %17
  %21 = add nsw i32 %18, -1
  store i32 %21, ptr %0, align 4, !tbaa !8
  br label %lean_dec.exit13

22:                                               ; preds = %17
  %.not.i = icmp eq i32 %18, 0
  br i1 %.not.i, label %lean_dec.exit13, label %23

23:                                               ; preds = %22
  tail call void @lean_dec_ref_cold(ptr noundef nonnull %0) #5
  br label %lean_dec.exit13

lean_dec.exit13:                                  ; preds = %23, %22, %20, %lean_inc.exit14
  %24 = getelementptr inbounds nuw i8, ptr %6, i64 16
  %25 = load ptr, ptr %24, align 8, !tbaa !4
  %26 = ptrtoint ptr %25 to i64
  %27 = and i64 %26, 1
  %.not22 = icmp eq i64 %27, 0
  br i1 %.not22, label %28, label %lean_inc.exit

28:                                               ; preds = %lean_dec.exit13
  %.val.i18 = load i32, ptr %25, align 4, !tbaa !8
  %29 = icmp sgt i32 %.val.i18, 0
  br i1 %29, label %30, label %32, !prof !11

30:                                               ; preds = %28
  %31 = add nuw i32 %.val.i18, 1
  store i32 %31, ptr %25, align 4, !tbaa !8
  br label %lean_inc.exit

32:                                               ; preds = %28
  %.not.i19 = icmp eq i32 %.val.i18, 0
  br i1 %.not.i19, label %lean_inc.exit, label %33

33:                                               ; preds = %32
  tail call void @lean_inc_ref_cold(ptr noundef nonnull %25) #5
  br label %lean_inc.exit

lean_inc.exit:                                    ; preds = %33, %32, %30, %lean_dec.exit13
  br i1 %.not, label %34, label %lean_dec.exit

34:                                               ; preds = %lean_inc.exit
  %35 = load i32, ptr %6, align 4, !tbaa !8
  %36 = icmp sgt i32 %35, 1
  br i1 %36, label %37, label %39, !prof !11

37:                                               ; preds = %34
  %38 = add nsw i32 %35, -1
  store i32 %38, ptr %6, align 4, !tbaa !8
  br label %lean_dec.exit

39:                                               ; preds = %34
  %.not.i15 = icmp eq i32 %35, 0
  br i1 %.not.i15, label %lean_dec.exit, label %40

40:                                               ; preds = %39
  tail call void @lean_dec_ref_cold(ptr noundef nonnull %6) #5
  br label %lean_dec.exit

lean_dec.exit:                                    ; preds = %40, %39, %37, %lean_inc.exit
  %41 = load ptr, ptr @l_Array_foldlMUnsafe_fold___at_Lake_mkOrdTagMap___spec__1___rarg___lambda__1___closed__1, align 8, !tbaa !4
  %42 = tail call ptr @l_Lake_RBArray_insert___rarg(ptr noundef %41, ptr noundef %1, ptr noundef %2, ptr noundef %3) #5
  %43 = tail call ptr @lean_apply_2(ptr noundef %25, ptr noundef nonnull inttoptr (i64 1 to ptr), ptr noundef %42) #5
  ret ptr %43
}